; Function Attrs: mustprogress nounwind uwtable
define dso_local void @_ZN4llvm7TGLexer15SkipBCPLCommentEv(ptr noundef nonnull align 8 dereferenceable(192) %0) local_unnamed_addr #0 align 2 {
  %2 = getelementptr inbounds nuw i8, ptr %0, i64 8
  %3 = load ptr, ptr %2, align 8
  %4 = getelementptr inbounds i8, ptr %3, i64 1
  store ptr %4, ptr %2, align 8
  %5 = getelementptr inbounds nuw i8, ptr %0, i64 16
  %6 = load ptr, ptr %5, align 8
  %7 = ptrtoint ptr %4 to i64
  %8 = ptrtoint ptr %6 to i64
  %9 = sub i64 %7, %8
  %10 = tail call noundef i64 @_ZNK4llvm9StringRef13find_first_ofES0_m(ptr noundef nonnull align 8 dereferenceable(16) %5, ptr nonnull @.str.41, i64 2, i64 noundef %9) #19
  %11 = icmp eq i64 %10, -1
  %12 = load ptr, ptr %5, align 8
  %13 = getelementptr inbounds i8, ptr %0, i64 24
  %14 = load i64, ptr %13, align 8
  %.v = select i1 %11, i64 %14, i64 %10
  %15 = getelementptr inbounds i8, ptr %12, i64 %.v
  store ptr %15, ptr %2, align 8
  ret void
}